

Certificate:
    Data:
        Version: 3 (0x2)
        Serial Number: 1 (0x1)
    Signature Algorithm: sha256WithRSAEncryption
        Issuer: CN=Sam Mallabone, ST=AB, C=CA/emailAddress=smallabo@uwo.ca, O=Western University, OU=Dev
        Validity
            Not Before: Apr  4 15:39:11 2018 GMT
            Not After : Apr  3 15:39:11 2023 GMT
        Subject: CN=localhost, ST=AB, C=CA/emailAddress=smallabo@uwo.ca, O=Western University, OU=Development
        Subject Public Key Info:
            Public Key Algorithm: rsaEncryption
                    00:ae:90:36:00:90:e4:bb:b3:2c:24:8b:a3:57:dc:
                    4d:11:46:a6:58:28:46:64:c2:7f:cc:93:5b:d0:37:
                    87:1c:bc:74:c0:31:10:df:aa:44:a3:35:4a:42:3d:
                    29:76:d4:7d:b8:26:6a:60:9c:eb:c9:c9:91:f1:52:
                    90:31:18:34:5a:86:89:3f:12:9e:89:12:f0:4c:fb:
                    81:dc:97:9b:62:2c:74:88:81:40:de:d4:7f:fa:1a:
                    6e:67:1e:d6:28:ac:c4:91:2e:d8:ba:3a:de:ec:fe:
                    4d:60:69:2e:14:2e:c9:e9:2b:8f:65:36:4e:71:09:
                    4c:d0:c2:30:1c:2f:b5:dd:cd:fa:cd:63:c9:4b:4a:
                    a2:db:80:0e:76:e6:48:56:56:19:c5:41:bf:93:9f:
                    3c:36:fc:d7:fe:fd:85:ca:4e:f0:5b:9e:f9:21:63:
                    66:ec:82:d9:9c:87:dd:8a:71:3f:d6:7b:4d:99:d0:
                    3c:b4:af:38:52:de:62:a1:30:86:4c:29:60:7a:a8:
                    74:b6:80:67:41:65:ec:82:0a:74:7d:de:a0:64:6a:
                    36:e3:cf:ae:97:80:b1:bd:be:6e:30:f3:1e:fd:77:
                    90:44:33:3b:8f:b4:a4:1d:5c:20:23:d7:69:e5:ae:
                    26:f4:b2:b0:5f:62:59:7b:a5:ef:7e:f2:38:a5:70:
                    16:d5
                Exponent: 65537 (0x10001)
        X509v3 extensions:
            X509v3 Basic Constraints:
                CA:FALSE
            X509v3 Key Usage:
                Digital Signature, Non Repudiation, Key Encipherment
            X509v3 Subject Alternative Name:
                DNS:localhost, DNS:invoicesmash.local
    Signature Algorithm: sha256WithRSAEncryption
         45:ef:fc:27:88:07:56:0c:8a:1d:0a:7f:75:9a:8f:b4:57:90:
	 fc:83:05:b1:48:a7:8f:26:ce:22:04:66:3e:1a:a7:e8:f9:48:
         be:6e:93:5b:13:3f:7b:79:be:e9:1f:90:79:2a:62:91:31:19:
         d8:05:a8:f5:d1:3b:a5:48:0f:f6:d8:f4:0c:ae:94:cd:c9:f0:
         9c:11:0c:7d:5b:db:0f:2d:38:9e:6b:51:9e:4f:52:ea:f1:b6:
         d2:63:5a:c6:19:9c:52:4a:bb:73:62:9f:ea:e5:d8:83:9d:d6:
         68:32:96:5d:1a:04:b6:bf:20:7b:89:45:88:0a:67:2c:c0:6e:
         d4:44:8d:46:54:6c:02:c4:a9:cc:0c:e9:58:9e:bc:d0:b5:fa:
         d3:c6:17:32:04:6e:04:13:1b:cb:13:d7:7b:59:b6:3f:1b:14:
         cc:9e:82:2c:da:e5:63:16:51:90:67:9c:7f:c4:c2:f4:46:4f:
         10:9a:d2:21:21:f8:a7:76:62:86:0b:17:cc:75:ec:62:be:21:
         72:fc:00:04:ac:b9:af:15:e5:af:bb:ad:fb:7f:31:d3:24:df:
         38:0d:9e:4f:2d:8a:2f:8b:55:41:8a:02:e4:47:8b:fa:e6:fc:
         38:3b:13:f3:63:48:a9:d0:12:b7:d7:21:fc:51:30:b7:33:1c:
         c9:52:7a:38
-----BEGIN CERTIFICATE-----
MIIDvjCCAqagAwIBAgIBATANBgkqhkiG9w0BAQsFADB9MRYwFAYDVQQDDA1TYW0g
TWFsbGFib25lMQswCQYDVQQIDAJBQjELMAkGA1UEBhMCQ0ExHjAcBgkqhkiG9w0B
CQEWD3NtYWxsYWJvQHV3by5jYTEbMBkGA1UECgwSV2VzdGVybiBVbml2ZXJzaXR5
MQwwCgYDVQQLDANEZXYwHhcNMTgwNDA0MTUzOTExWhcNMjMwNDAzMTUzOTExWjCB
gTESMBAGA1UEAwwJbG9jYWxob3N0MQswCQYDVQQIDAJBQjELMAkGA1UEBhMCQ0Ex
HjAcBgkqhkiG9w0BCQEWD3NtYWxsYWJvQHV3by5jYTEbMBkGA1UECgwSV2VzdGVy
biBVbml2ZXJzaXR5MRQwEgYDVQQLDAtEZXZlbG9wbWVudDCCASIwDQYJKoZIhvcN
AQEBBQADggEPADCCAQoCggEBAK6QNgCQ5LuzLCSLo1fcTRFGplgoRmTCf8yTW9A3
hxy8dMAxEN+qRKM1SkI9KXbUfbgmamCc68nJkfFSkDEYNFqGiT8SnokS8Ez7gdyX
m2IsdIiBQN7Uf/oabmce1iisxJEu2Lo63uz+TWBpLhQuyekrj2U2TnEJTNDCMBwv
td3N+s1jyUtKotuADnbmSFZWGcVBv5OfPDb81/79hcpO8Fue+SFjZuyC2ZyH3Ypx
P9Z7TZnQPLSvOFLeYqEwhkwpYHqodLaAZ0Fl7IIKdH3eoGRqNuPPrpeAsb2+bjDz
Hv13kEQzO4+0pB1cICPXaeWuJvSysF9iWXul737yOKVwFtUCAwEAAaNEMEIwCQYD
VR0TBAIwADALBgNVHQ8EBAMCBeAwKAYDVR0RBCEwH4IJbG9jYWxob3N0ghJpbnZv
aWNlc21hc2gubG9jYWwwDQYJKoZIhvcNAQELBQADggEBAEXv/CeIB1YMih0Kf3Wa
j7RXkPyDBbFIp48mziIEZj4ap+j5SL5uk1sTP3t5vukfkHkqYpExGdgFqPXRO6VI
D/bY9AyulM3J8JwRDH1b2w8tOJ5rUZ5PUurxttJjWsYZnFJKu3Nin+rl2IOd1mgy
ll0aBLa/IHuJRYgKZyzAbtREjUZUbALEqcwM6VievNC1+tPGFzIEbgQTG8sT13tZ
tj8bFMyegiza5WMWUZBnnH/EwvRGTxCa0iEh+Kd2YoYLF8x17GK+IXL8AASsua8V
5a+7rft/MdMk3zgNnk8tii+LVUGKAuRHi/rm/Dg7E/NjSKnQErfXIfxRMLczHMlS
ejg=
-----END CERTIFICATE-----
